target datalayout = "e-m:e-p270:32:32-p271:32:32-p272:64:64-i64:64-i128:128-f80:128-n8:16:32:64-S128"
target triple = "x86_64-pc-linux-gnu"

%class.PathString = type { ptr }

@_ZN9Arguments18_system_propertiesE = hidden global ptr null, align 8
@_ZN9Arguments5_modeE = hidden global i32 1, align 4
@_ZN9Arguments25_AlwaysCompileLoopMethodsE = hidden global i8 0, align 1
@AlwaysCompileLoopMethods = external global i8, align 1
@_ZN9Arguments22_UseOnStackReplacementE = hidden global i8 0, align 1
@UseOnStackReplacement = external global i8, align 1
@_ZN9Arguments22_BackgroundCompilationE = hidden global i8 0, align 1
@BackgroundCompilation = external global i8, align 1
@_ZN9Arguments13_ClipInliningE = hidden global i8 0, align 1
@ClipInlining = external global i8, align 1
@_ZN9Arguments10_java_homeE = hidden global ptr null, align 8
@.str.26 = private unnamed_addr constant [13 x i8] c"java.vm.info\00", align 1
@g_assert_poison = external global ptr, align 8
@.str.61 = private unnamed_addr constant [40 x i8] c"src/hotspot/share/runtime/arguments.cpp\00", align 1
@UseInterpreter = external global i8, align 1
@UseCompiler = external global i8, align 1
@UseLoopCounter = external global i8, align 1
@AggressiveHeap = external global i8, align 1
@_ZL18mode_flag_cmd_line = internal global i8 0, align 1
@MaxTenuringThreshold = external global i32, align 4
@.str.252 = private unnamed_addr constant [18 x i8] c"%s%slib%sendorsed\00", align 1
@.str.253 = private unnamed_addr constant [157 x i8] c"<JAVA_HOME>/lib/endorsed is not supported. Endorsed standards and standalone APIs\0Ain modular form will be supported via the concept of upgradeable modules.\0A\00", align 1
@.str.254 = private unnamed_addr constant [13 x i8] c"%s%slib%sext\00", align 1
@.str.255 = private unnamed_addr constant [96 x i8] c"<JAVA_HOME>/lib/ext exists, extensions mechanism no longer supported; Use -classpath instead.\0A.\00", align 1
@CompileThresholdScaling = external global double, align 8
@TieredCompilation = external global i8, align 1
@CompileThreshold = external global i64, align 8
@InitialTenuringThreshold = external global i32, align 4
@_ZN13defaultStream14_output_streamE = external global ptr, align 8
@_ZN13defaultStream13_error_streamE = external global ptr, align 8
@DisplayVMOutputToStderr = external global i8, align 1

; Function Attrs: mustprogress nounwind uwtable
define linkonce_odr hidden noundef ptr @_ZNK10PathString5valueEv(ptr noundef nonnull align 8 dereferenceable(8) %0) #1 comdat align 2 {
  %2 = alloca ptr, align 8
  store ptr %0, ptr %2, align 8
  %3 = load ptr, ptr %2, align 8
  %4 = getelementptr inbounds %class.PathString, ptr %3, i32 0, i32 0
  %5 = load ptr, ptr %4, align 8
  ret ptr %5
}

; Function Attrs: mustprogress nounwind uwtable
define linkonce_odr hidden noundef i32 @_ZN13JVMFlagAccess3setIjLi2EEEN7JVMFlag5ErrorE12JVMFlagsEnumT_13JVMFlagOrigin(i32 noundef %0, i32 noundef %1, i32 noundef %2) #1 comdat align 2 {
  %4 = alloca i32, align 4
  %5 = alloca i32, align 4
  %6 = alloca i32, align 4
  store i32 %0, ptr %4, align 4
  store i32 %1, ptr %5, align 4
  store i32 %2, ptr %6, align 4
  %7 = load i32, ptr %4, align 4
  %8 = load i32, ptr %6, align 4
  %9 = call noundef i32 @_ZN13JVMFlagAccess13set_or_assertE12JVMFlagsEnumiPv13JVMFlagOrigin(i32 noundef %7, i32 noundef 2, ptr noundef %5, i32 noundef %8)
  ret i32 %9
}

; Function Attrs: mustprogress nounwind uwtable
define linkonce_odr hidden noundef ptr @_ZNK14SystemProperty5valueEv(ptr noundef nonnull align 8 dereferenceable(26) %0) #1 comdat align 2 {
  %2 = alloca ptr, align 8
  store ptr %0, ptr %2, align 8
  %3 = load ptr, ptr %2, align 8
  %4 = call noundef ptr @_ZNK10PathString5valueEv(ptr noundef nonnull align 8 dereferenceable(8) %3)
  ret ptr %4
}

; Function Attrs: mustprogress nounwind uwtable
define linkonce_odr hidden noundef i32 @_Z33Flag_InitialTenuringThreshold_setj13JVMFlagOrigin(i32 noundef %0, i32 noundef %1) #1 comdat {
  %3 = alloca i32, align 4
  %4 = alloca i32, align 4
  store i32 %0, ptr %3, align 4
  store i32 %1, ptr %4, align 4
  %5 = load i32, ptr %3, align 4
  %6 = load i32, ptr %4, align 4
  %7 = call noundef i32 @_ZN13JVMFlagAccess3setIjLi2EEEN7JVMFlag5ErrorE12JVMFlagsEnumT_13JVMFlagOrigin(i32 noundef 1205, i32 noundef %5, i32 noundef %6)
  ret i32 %7
}

; Function Attrs: mustprogress nounwind uwtable
define hidden void @_ZN9Arguments14set_mode_flagsENS_4ModeE(i32 noundef %0) #1 align 2 {
  %2 = alloca i32, align 4
  store i32 %0, ptr %2, align 4
  %3 = load i32, ptr %2, align 4
  store i32 %3, ptr @_ZN9Arguments5_modeE, align 4
  %4 = call noundef ptr @_ZN19Abstract_VM_Version14vm_info_stringEv()
  call void @_ZN9Arguments23PropertyList_unique_addEPP14SystemPropertyPKcS4_NS_18PropertyAppendableENS_17PropertyWriteableENS_16PropertyInternalE(ptr noundef @_ZN9Arguments18_system_propertiesE, ptr noundef @.str.26, ptr noundef %4, i32 noundef 1, i32 noundef 1, i32 noundef 1)
  store i8 1, ptr @UseInterpreter, align 1
  store i8 1, ptr @UseCompiler, align 1
  store i8 1, ptr @UseLoopCounter, align 1
  %5 = load i8, ptr @_ZN9Arguments13_ClipInliningE, align 1
  %6 = trunc i8 %5 to i1
  %7 = zext i1 %6 to i8
  store i8 %7, ptr @ClipInlining, align 1
  %8 = load i8, ptr @_ZN9Arguments25_AlwaysCompileLoopMethodsE, align 1
  %9 = trunc i8 %8 to i1
  %10 = zext i1 %9 to i8
  store i8 %10, ptr @AlwaysCompileLoopMethods, align 1
  %11 = load i8, ptr @_ZN9Arguments22_UseOnStackReplacementE, align 1
  %12 = trunc i8 %11 to i1
  %13 = zext i1 %12 to i8
  store i8 %13, ptr @UseOnStackReplacement, align 1
  %14 = load i8, ptr @_ZN9Arguments22_BackgroundCompilationE, align 1
  %15 = trunc i8 %14 to i1
  %16 = zext i1 %15 to i8
  store i8 %16, ptr @BackgroundCompilation, align 1
  %17 = load i32, ptr %2, align 4
  switch i32 %17, label %18 [
    i32 0, label %22
    i32 1, label %23
    i32 2, label %24
  ]

18:                                               ; preds = %1
  br label %19

19:                                               ; preds = %18
  %20 = load ptr, ptr @g_assert_poison, align 8
  store i8 88, ptr %20, align 1
  call void @_Z28report_should_not_reach_herePKci(ptr noundef @.str.61, i32 noundef 1333) #14
  unreachable

21:                                               ; No predecessors!
  br label %25

22:                                               ; preds = %1
  store i8 0, ptr @UseCompiler, align 1
  store i8 0, ptr @UseLoopCounter, align 1
  store i8 0, ptr @AlwaysCompileLoopMethods, align 1
  store i8 0, ptr @UseOnStackReplacement, align 1
  br label %25

23:                                               ; preds = %1
  br label %25

24:                                               ; preds = %1
  store i8 0, ptr @UseInterpreter, align 1
  store i8 0, ptr @BackgroundCompilation, align 1
  store i8 0, ptr @ClipInlining, align 1
  br label %25

25:                                               ; preds = %24, %23, %22, %21
  ret void
}

; Function Attrs: mustprogress nounwind uwtable
define linkonce_odr hidden noundef ptr @_ZN13defaultStream13output_streamEv() #1 comdat align 2 {
  %1 = load i8, ptr @DisplayVMOutputToStderr, align 1
  %2 = trunc i8 %1 to i1
  br i1 %2, label %3, label %5

3:                                                ; preds = %0
  %4 = load ptr, ptr @_ZN13defaultStream13_error_streamE, align 8
  br label %7

5:                                                ; preds = %0
  %6 = load ptr, ptr @_ZN13defaultStream14_output_streamE, align 8
  br label %7

7:                                                ; preds = %5, %3
  %8 = phi ptr [ %4, %3 ], [ %6, %5 ]
  ret ptr %8
}

; Function Attrs: mustprogress nounwind uwtable
define linkonce_odr hidden noundef ptr @_ZN9Arguments13get_java_homeEv() #1 comdat align 2 {
  %1 = load ptr, ptr @_ZN9Arguments10_java_homeE, align 8
  %2 = call noundef ptr @_ZNK14SystemProperty5valueEv(ptr noundef nonnull align 8 dereferenceable(26) %1)
  ret ptr %2
}

; Function Attrs: mustprogress nounwind uwtable
define hidden noundef i32 @_ZN9Arguments21finalize_vm_init_argsEb(i1 noundef zeroext %0) #1 align 2 {
  %2 = alloca i32, align 4
  %3 = alloca i8, align 1
  %4 = alloca [4097 x i8], align 16
  %5 = alloca ptr, align 8
  %6 = alloca ptr, align 8
  %7 = alloca i32, align 4
  %8 = zext i1 %0 to i8
  store i8 %8, ptr %3, align 1
  %9 = call noundef ptr @_ZN2os14file_separatorEv()
  store ptr %9, ptr %5, align 8
  %10 = getelementptr inbounds [4097 x i8], ptr %4, i64 0, i64 0
  %11 = call noundef ptr @_ZN9Arguments13get_java_homeEv()
  %12 = load ptr, ptr %5, align 8
  %13 = load ptr, ptr %5, align 8
  %14 = call i32 (ptr, i64, ptr, ...) @jio_snprintf(ptr noundef %10, i64 noundef 4097, ptr noundef @.str.252, ptr noundef %11, ptr noundef %12, ptr noundef %13)
  %15 = getelementptr inbounds [4097 x i8], ptr %4, i64 0, i64 0
  %16 = call noundef ptr @_ZN2os7opendirEPKc(ptr noundef %15)
  store ptr %16, ptr %6, align 8
  %17 = load ptr, ptr %6, align 8
  %18 = icmp ne ptr %17, null
  br i1 %18, label %19, label %24

19:                                               ; preds = %1
  %20 = call noundef ptr @_ZN13defaultStream13output_streamEv()
  %21 = call i32 (ptr, ptr, ...) @jio_fprintf(ptr noundef %20, ptr noundef @.str.253)
  %22 = load ptr, ptr %6, align 8
  %23 = call noundef i32 @_ZN2os8closedirEP11__dirstream(ptr noundef %22)
  store i32 -1, ptr %2, align 4
  br label %82

24:                                               ; preds = %1
  %25 = getelementptr inbounds [4097 x i8], ptr %4, i64 0, i64 0
  %26 = call noundef ptr @_ZN9Arguments13get_java_homeEv()
  %27 = load ptr, ptr %5, align 8
  %28 = load ptr, ptr %5, align 8
  %29 = call i32 (ptr, i64, ptr, ...) @jio_snprintf(ptr noundef %25, i64 noundef 4097, ptr noundef @.str.254, ptr noundef %26, ptr noundef %27, ptr noundef %28)
  %30 = getelementptr inbounds [4097 x i8], ptr %4, i64 0, i64 0
  %31 = call noundef ptr @_ZN2os7opendirEPKc(ptr noundef %30)
  store ptr %31, ptr %6, align 8
  %32 = load ptr, ptr %6, align 8
  %33 = icmp ne ptr %32, null
  br i1 %33, label %34, label %39

34:                                               ; preds = %24
  %35 = call noundef ptr @_ZN13defaultStream13output_streamEv()
  %36 = call i32 (ptr, ptr, ...) @jio_fprintf(ptr noundef %35, ptr noundef @.str.255)
  %37 = load ptr, ptr %6, align 8
  %38 = call noundef i32 @_ZN2os8closedirEP11__dirstream(ptr noundef %37)
  store i32 -1, ptr %2, align 4
  br label %82

39:                                               ; preds = %24
  %40 = load i8, ptr @AggressiveHeap, align 1
  %41 = trunc i8 %40 to i1
  br i1 %41, label %42, label %49

42:                                               ; preds = %39
  %43 = call noundef i32 @_ZN9Arguments25set_aggressive_heap_flagsEv()
  store i32 %43, ptr %7, align 4
  %44 = load i32, ptr %7, align 4
  %45 = icmp ne i32 %44, 0
  br i1 %45, label %46, label %48

46:                                               ; preds = %42
  %47 = load i32, ptr %7, align 4
  store i32 %47, ptr %2, align 4
  br label %82

48:                                               ; preds = %42
  br label %49

49:                                               ; preds = %48, %39
  %50 = load double, ptr @CompileThresholdScaling, align 8
  %51 = fcmp oeq double %50, 0.000000e+00
  br i1 %51, label %58, label %52

52:                                               ; preds = %49
  %53 = load i8, ptr @TieredCompilation, align 1
  %54 = trunc i8 %53 to i1
  br i1 %54, label %59, label %55

55:                                               ; preds = %52
  %56 = load i64, ptr @CompileThreshold, align 8
  %57 = icmp eq i64 %56, 0
  br i1 %57, label %58, label %59

58:                                               ; preds = %55, %49
  call void @_ZN9Arguments14set_mode_flagsENS_4ModeE(i32 noundef 0)
  br label %59

59:                                               ; preds = %58, %55, %52
  %60 = call noundef zeroext i1 @_ZN7JVMFlag10is_defaultE12JVMFlagsEnum(i32 noundef 1205)
  br i1 %60, label %61, label %68

61:                                               ; preds = %59
  %62 = load i32, ptr @InitialTenuringThreshold, align 4
  %63 = load i32, ptr @MaxTenuringThreshold, align 4
  %64 = icmp ugt i32 %62, %63
  br i1 %64, label %65, label %68

65:                                               ; preds = %61
  %66 = load i32, ptr @MaxTenuringThreshold, align 4
  %67 = call noundef i32 @_Z33Flag_InitialTenuringThreshold_setj13JVMFlagOrigin(i32 noundef %66, i32 noundef 5)
  br label %68

68:                                               ; preds = %65, %61, %59
  %69 = call noundef zeroext i1 @_ZN19CompilationModeFlag10initializeEv()
  br i1 %69, label %71, label %70

70:                                               ; preds = %68
  store i32 -1, ptr %2, align 4
  br label %82

71:                                               ; preds = %68
  %72 = call noundef zeroext i1 @_ZN9Arguments25check_vm_args_consistencyEv()
  br i1 %72, label %74, label %73

73:                                               ; preds = %71
  store i32 -1, ptr %2, align 4
  br label %82

74:                                               ; preds = %71
  %75 = load i8, ptr %3, align 1
  %76 = trunc i8 %75 to i1
  %77 = load i8, ptr @_ZL18mode_flag_cmd_line, align 1
  %78 = trunc i8 %77 to i1
  %79 = call noundef zeroext i1 @_ZN9CDSConfig25check_vm_args_consistencyEbb(i1 noundef zeroext %76, i1 noundef zeroext %78)
  br i1 %79, label %81, label %80

80:                                               ; preds = %74
  store i32 -1, ptr %2, align 4
  br label %82

81:                                               ; preds = %74
  store i32 0, ptr %2, align 4
  br label %82

82:                                               ; preds = %81, %80, %73, %70, %46, %34, %19
  %83 = load i32, ptr %2, align 4
  ret i32 %83
}