; Function Attrs: mustprogress nounwind uwtable
define hidden noundef i32 @_ZN9Arguments21finalize_vm_init_argsEb(i1 noundef zeroext %0) local_unnamed_addr #0 align 2 {
  %2 = alloca i32, align 4
  %3 = alloca [4097 x i8], align 16
  %4 = tail call noundef ptr @_ZN2os14file_separatorEv() #31
  %5 = load ptr, ptr @_ZN9Arguments10_java_homeE, align 8
  %6 = load ptr, ptr %5, align 8
  %7 = call i32 (ptr, i64, ptr, ...) @jio_snprintf(ptr noundef nonnull %3, i64 noundef 4097, ptr noundef nonnull @.str.252, ptr noundef %6, ptr noundef %4, ptr noundef %4) #31
  %8 = call noundef ptr @_ZN2os7opendirEPKc(ptr noundef nonnull %3) #31
  %.not16 = icmp eq ptr %8, null
  br i1 %.not16, label %17, label %9

9:                                                ; preds = %1
  %10 = load i8, ptr @DisplayVMOutputToStderr, align 1
  %11 = trunc i8 %10 to i1
  %12 = load ptr, ptr @_ZN13defaultStream13_error_streamE, align 8
  %13 = load ptr, ptr @_ZN13defaultStream14_output_streamE, align 8
  %14 = select i1 %11, ptr %12, ptr %13
  %15 = call i32 (ptr, ptr, ...) @jio_fprintf(ptr noundef %14, ptr noundef nonnull @.str.253) #31
  %16 = call noundef i32 @_ZN2os8closedirEP11__dirstream(ptr noundef nonnull %8) #31
  br label %63

17:                                               ; preds = %1
  %18 = load ptr, ptr @_ZN9Arguments10_java_homeE, align 8
  %19 = load ptr, ptr %18, align 8
  %20 = call i32 (ptr, i64, ptr, ...) @jio_snprintf(ptr noundef nonnull %3, i64 noundef 4097, ptr noundef nonnull @.str.254, ptr noundef %19, ptr noundef %4, ptr noundef %4) #31
  %21 = call noundef ptr @_ZN2os7opendirEPKc(ptr noundef nonnull %3) #31
  %.not17 = icmp eq ptr %21, null
  br i1 %.not17, label %30, label %22

22:                                               ; preds = %17
  %23 = load i8, ptr @DisplayVMOutputToStderr, align 1
  %24 = trunc i8 %23 to i1
  %25 = load ptr, ptr @_ZN13defaultStream13_error_streamE, align 8
  %26 = load ptr, ptr @_ZN13defaultStream14_output_streamE, align 8
  %27 = select i1 %24, ptr %25, ptr %26
  %28 = call i32 (ptr, ptr, ...) @jio_fprintf(ptr noundef %27, ptr noundef nonnull @.str.255) #31
  %29 = call noundef i32 @_ZN2os8closedirEP11__dirstream(ptr noundef nonnull %21) #31
  br label %63

30:                                               ; preds = %17
  %31 = load i8, ptr @AggressiveHeap, align 1
  %32 = trunc i8 %31 to i1
  br i1 %32, label %33, label %35

33:                                               ; preds = %30
  %34 = call noundef i32 @_ZN9Arguments25set_aggressive_heap_flagsEv()
  %.not18 = icmp eq i32 %34, 0
  br i1 %.not18, label %35, label %63

35:                                               ; preds = %33, %30
  %36 = load double, ptr @CompileThresholdScaling, align 8
  %37 = fcmp oeq double %36, 0.000000e+00
  br i1 %37, label %43, label %38

38:                                               ; preds = %35
  %39 = load i8, ptr @TieredCompilation, align 1
  %40 = trunc i8 %39 to i1
  %41 = load i64, ptr @CompileThreshold, align 8
  %42 = icmp ne i64 %41, 0
  %or.cond.not = select i1 %40, i1 true, i1 %42
  br i1 %or.cond.not, label %49, label %43

43:                                               ; preds = %38, %35
  store i32 0, ptr @_ZN9Arguments5_modeE, align 4
  %44 = call noundef ptr @_ZN19Abstract_VM_Version14vm_info_stringEv() #31
  call void @_ZN9Arguments23PropertyList_unique_addEPP14SystemPropertyPKcS4_NS_18PropertyAppendableENS_17PropertyWriteableENS_16PropertyInternalE(ptr noundef nonnull @_ZN9Arguments18_system_propertiesE, ptr noundef nonnull @.str.26, ptr noundef %44, i32 noundef 1, i32 noundef 1, i32 noundef 1)
  store i8 1, ptr @UseInterpreter, align 1
  %45 = load i8, ptr @_ZN9Arguments13_ClipInliningE, align 1
  %46 = and i8 %45, 1
  store i8 %46, ptr @ClipInlining, align 1
  %47 = load i8, ptr @_ZN9Arguments22_BackgroundCompilationE, align 1
  %48 = and i8 %47, 1
  store i8 %48, ptr @BackgroundCompilation, align 1
  store i8 0, ptr @UseCompiler, align 1
  store i8 0, ptr @UseLoopCounter, align 1
  store i8 0, ptr @AlwaysCompileLoopMethods, align 1
  store i8 0, ptr @UseOnStackReplacement, align 1
  br label %49

49:                                               ; preds = %43, %38
  %50 = call noundef zeroext i1 @_ZN7JVMFlag10is_defaultE12JVMFlagsEnum(i32 noundef 1205) #31
  br i1 %50, label %51, label %57

51:                                               ; preds = %49
  %52 = load i32, ptr @InitialTenuringThreshold, align 4
  %53 = load i32, ptr @MaxTenuringThreshold, align 4
  %54 = icmp ugt i32 %52, %53
  br i1 %54, label %55, label %57

55:                                               ; preds = %51
  call void @llvm.lifetime.start.p0(i64 4, ptr nonnull %2)
  store i32 %53, ptr %2, align 4
  %56 = call noundef i32 @_ZN13JVMFlagAccess13set_or_assertE12JVMFlagsEnumiPv13JVMFlagOrigin(i32 noundef 1205, i32 noundef 2, ptr noundef nonnull %2, i32 noundef 5) #31
  call void @llvm.lifetime.end.p0(i64 4, ptr nonnull %2)
  br label %57

57:                                               ; preds = %55, %51, %49
  %58 = call noundef zeroext i1 @_ZN19CompilationModeFlag10initializeEv() #31
  br i1 %58, label %59, label %63

59:                                               ; preds = %57
  %60 = call noundef zeroext i1 @_ZN9Arguments25check_vm_args_consistencyEv()
  br i1 %60, label %61, label %63

61:                                               ; preds = %59
  %.b20 = load i1, ptr @_ZL18mode_flag_cmd_line, align 1
  %62 = call noundef zeroext i1 @_ZN9CDSConfig25check_vm_args_consistencyEbb(i1 noundef zeroext %0, i1 noundef zeroext %.b20) #31
  %not. = xor i1 %62, true
  %. = sext i1 %not. to i32
  br label %63

63:                                               ; preds = %61, %59, %57, %33, %22, %9
  %.0 = phi i32 [ -1, %9 ], [ -1, %22 ], [ %34, %33 ], [ -1, %57 ], [ -1, %59 ], [ %., %61 ]
  ret i32 %.0
}